; ModuleID = '24/1552.c'
source_filename = "24/1552.c"
target datalayout = "e-m:e-p270:32:32-p271:32:32-p272:64:64-i64:64-f80:128-n8:16:32:64-S128"
target triple = "x86_64-pc-linux-gnu"

@.str = private unnamed_addr constant [6 x i8] c"%s\0A%s\00", align 1

; Function Attrs: noinline nounwind uwtable
define dso_local i32 @main() #0 {
  %1 = alloca i32, align 4
  %2 = alloca [20000 x i8], align 16
  %3 = alloca [200 x [100 x i8]], align 16
  %4 = alloca i32, align 4
  %5 = alloca i32, align 4
  %6 = alloca i32, align 4
  %7 = alloca i32, align 4
  %8 = alloca [200 x i32], align 16
  %9 = alloca i32, align 4
  %10 = alloca i32, align 4
  store i32 0, i32* %1, align 4
  store i32 0, i32* %6, align 4
  store i32 0, i32* %7, align 4
  %11 = getelementptr inbounds [20000 x i8], [20000 x i8]* %2, i64 0, i64 0
  %12 = call i32 (i8*, ...) bitcast (i32 (...)* @gets to i32 (i8*, ...)*)(i8* %11)
  %13 = getelementptr inbounds [20000 x i8], [20000 x i8]* %2, i64 0, i64 0
  %14 = call i64 @strlen(i8* %13) #3
  %15 = trunc i64 %14 to i32
  store i32 %15, i32* %5, align 4
  store i32 0, i32* %4, align 4
  br label %16

16:                                               ; preds = %66, %0
  %17 = load i32, i32* %4, align 4
  %18 = load i32, i32* %5, align 4
  %19 = icmp slt i32 %17, %18
  br i1 %19, label %20, label %69

20:                                               ; preds = %16
  %21 = load i32, i32* %4, align 4
  %22 = sext i32 %21 to i64
  %23 = getelementptr inbounds [20000 x i8], [20000 x i8]* %2, i64 0, i64 %22
  %24 = load i8, i8* %23, align 1
  %25 = sext i8 %24 to i32
  %26 = icmp ne i32 %25, 32
  br i1 %26, label %27, label %47

27:                                               ; preds = %20
  %28 = load i32, i32* %4, align 4
  %29 = sext i32 %28 to i64
  %30 = getelementptr inbounds [20000 x i8], [20000 x i8]* %2, i64 0, i64 %29
  %31 = load i8, i8* %30, align 1
  %32 = sext i8 %31 to i32
  %33 = icmp ne i32 %32, 44
  br i1 %33, label %34, label %47

34:                                               ; preds = %27
  %35 = load i32, i32* %4, align 4
  %36 = sext i32 %35 to i64
  %37 = getelementptr inbounds [20000 x i8], [20000 x i8]* %2, i64 0, i64 %36
  %38 = load i8, i8* %37, align 1
  %39 = load i32, i32* %6, align 4
  %40 = sext i32 %39 to i64
  %41 = getelementptr inbounds [200 x [100 x i8]], [200 x [100 x i8]]* %3, i64 0, i64 %40
  %42 = load i32, i32* %7, align 4
  %43 = sext i32 %42 to i64
  %44 = getelementptr inbounds [100 x i8], [100 x i8]* %41, i64 0, i64 %43
  store i8 %38, i8* %44, align 1
  %45 = load i32, i32* %7, align 4
  %46 = add nsw i32 %45, 1
  store i32 %46, i32* %7, align 4
  br label %65

47:                                               ; preds = %27, %20
  %48 = load i32, i32* %7, align 4
  %49 = icmp eq i32 %48, 0
  br i1 %49, label %50, label %51

50:                                               ; preds = %47
  br label %66

51:                                               ; preds = %47
  %52 = load i32, i32* %6, align 4
  %53 = sext i32 %52 to i64
  %54 = getelementptr inbounds [200 x [100 x i8]], [200 x [100 x i8]]* %3, i64 0, i64 %53
  %55 = load i32, i32* %7, align 4
  %56 = add nsw i32 %55, 1
  %57 = sext i32 %56 to i64
  %58 = getelementptr inbounds [100 x i8], [100 x i8]* %54, i64 0, i64 %57
  store i8 0, i8* %58, align 1
  %59 = load i32, i32* %7, align 4
  %60 = load i32, i32* %6, align 4
  %61 = sext i32 %60 to i64
  %62 = getelementptr inbounds [200 x i32], [200 x i32]* %8, i64 0, i64 %61
  store i32 %59, i32* %62, align 4
  store i32 0, i32* %7, align 4
  %63 = load i32, i32* %6, align 4
  %64 = add nsw i32 %63, 1
  store i32 %64, i32* %6, align 4
  br label %65

65:                                               ; preds = %51, %34
  br label %66

66:                                               ; preds = %65, %50
  %67 = load i32, i32* %4, align 4
  %68 = add nsw i32 %67, 1
  store i32 %68, i32* %4, align 4
  br label %16

69:                                               ; preds = %16
  %70 = load i32, i32* %7, align 4
  %71 = load i32, i32* %6, align 4
  %72 = sext i32 %71 to i64
  %73 = getelementptr inbounds [200 x i32], [200 x i32]* %8, i64 0, i64 %72
  store i32 %70, i32* %73, align 4
  %74 = load i32, i32* %6, align 4
  %75 = sext i32 %74 to i64
  %76 = getelementptr inbounds [200 x [100 x i8]], [200 x [100 x i8]]* %3, i64 0, i64 %75
  %77 = load i32, i32* %7, align 4
  %78 = add nsw i32 %77, 1
  %79 = sext i32 %78 to i64
  %80 = getelementptr inbounds [100 x i8], [100 x i8]* %76, i64 0, i64 %79
  store i8 0, i8* %80, align 1
  store i32 0, i32* %9, align 4
  store i32 0, i32* %10, align 4
  store i32 0, i32* %4, align 4
  br label %81

81:                                               ; preds = %110, %69
  %82 = load i32, i32* %4, align 4
  %83 = load i32, i32* %6, align 4
  %84 = icmp sle i32 %82, %83
  br i1 %84, label %85, label %113

85:                                               ; preds = %81
  %86 = load i32, i32* %4, align 4
  %87 = sext i32 %86 to i64
  %88 = getelementptr inbounds [200 x i32], [200 x i32]* %8, i64 0, i64 %87
  %89 = load i32, i32* %88, align 4
  %90 = load i32, i32* %9, align 4
  %91 = sext i32 %90 to i64
  %92 = getelementptr inbounds [200 x i32], [200 x i32]* %8, i64 0, i64 %91
  %93 = load i32, i32* %92, align 4
  %94 = icmp sgt i32 %89, %93
  br i1 %94, label %95, label %97

95:                                               ; preds = %85
  %96 = load i32, i32* %4, align 4
  store i32 %96, i32* %9, align 4
  br label %97

97:                                               ; preds = %95, %85
  %98 = load i32, i32* %4, align 4
  %99 = sext i32 %98 to i64
  %100 = getelementptr inbounds [200 x i32], [200 x i32]* %8, i64 0, i64 %99
  %101 = load i32, i32* %100, align 4
  %102 = load i32, i32* %10, align 4
  %103 = sext i32 %102 to i64
  %104 = getelementptr inbounds [200 x i32], [200 x i32]* %8, i64 0, i64 %103
  %105 = load i32, i32* %104, align 4
  %106 = icmp slt i32 %101, %105
  br i1 %106, label %107, label %109

107:                                              ; preds = %97
  %108 = load i32, i32* %4, align 4
  store i32 %108, i32* %10, align 4
  br label %109

109:                                              ; preds = %107, %97
  br label %110

110:                                              ; preds = %109
  %111 = load i32, i32* %4, align 4
  %112 = add nsw i32 %111, 1
  store i32 %112, i32* %4, align 4
  br label %81

113:                                              ; preds = %81
  %114 = load i32, i32* %9, align 4
  %115 = sext i32 %114 to i64
  %116 = getelementptr inbounds [200 x [100 x i8]], [200 x [100 x i8]]* %3, i64 0, i64 %115
  %117 = getelementptr inbounds [100 x i8], [100 x i8]* %116, i64 0, i64 0
  %118 = load i32, i32* %10, align 4
  %119 = sext i32 %118 to i64
  %120 = getelementptr inbounds [200 x [100 x i8]], [200 x [100 x i8]]* %3, i64 0, i64 %119
  %121 = getelementptr inbounds [100 x i8], [100 x i8]* %120, i64 0, i64 0
  %122 = call i32 (i8*, ...) @printf(i8* getelementptr inbounds ([6 x i8], [6 x i8]* @.str, i64 0, i64 0), i8* %117, i8* %121)
  ret i32 0
}

declare dso_local i32 @gets(...) #1

; Function Attrs: nounwind readonly
declare dso_local i64 @strlen(i8*) #2

declare dso_local i32 @printf(i8*, ...) #1


!llvm.module.flags = !{!0}
!llvm.ident = !{!1}

!0 = !{i32 1, !"wchar_size", i32 4}
!1 = !{!"clang version 10.0.0-4ubuntu1 "}
